; Function Attrs: mustprogress nounwind uwtable
define hidden void @_ZN10JfrStorage7releaseEP9JfrBufferP6Thread(ptr nocapture noundef nonnull readonly align 8 dereferenceable(48) %0, ptr noundef %1, ptr noundef %2) local_unnamed_addr #1 align 2 {
  %4 = getelementptr inbounds i8, ptr %1, i64 16
  %5 = load volatile ptr, ptr %4, align 8
  tail call void asm sideeffect "", "~{memory},~{dirflag},~{fpsr},~{flags}"() #16, !srcloc !6
  %6 = getelementptr inbounds i8, ptr %1, i64 40
  %7 = load i16, ptr %6, align 8
  %8 = zext i16 %7 to i64
  %9 = getelementptr inbounds i8, ptr %1, i64 %8
  %10 = icmp eq ptr %5, %9
  br i1 %10, label %14, label %11

11:                                               ; preds = %3
  %12 = tail call noundef zeroext i1 @_ZN10JfrStorage20flush_regular_bufferEP9JfrBufferP6Thread(ptr noundef nonnull align 8 dereferenceable(48) %0, ptr noundef nonnull %1, ptr noundef %2)
  br i1 %12, label %14, label %13

13:                                               ; preds = %11
  tail call void @_ZN9JfrBuffer12reinitializeEv(ptr noundef nonnull align 8 dereferenceable(48) %1) #16
  br label %14

14:                                               ; preds = %11, %13, %3
  tail call void @_ZN9JfrBuffer11set_retiredEv(ptr noundef nonnull align 8 dereferenceable(48) %1) #16
  ret void
}